; Function Attrs: nounwind uwtable
define dso_local void @free_object_addresses(ptr noundef %0) local_unnamed_addr #0 {
  %2 = load ptr, ptr %0, align 8
  tail call void @pfree(ptr noundef %2) #9
  %3 = getelementptr inbounds nuw i8, ptr %0, i64 8
  %4 = load ptr, ptr %3, align 8
  %.not = icmp eq ptr %4, null
  br i1 %.not, label %6, label %5

5:                                                ; preds = %1
  tail call void @pfree(ptr noundef nonnull %4) #9
  br label %6

6:                                                ; preds = %5, %1
  tail call void @pfree(ptr noundef nonnull %0) #9
  ret void
}